; Function Attrs: nofree norecurse nosync nounwind memory(argmem: readwrite) uwtable
define internal void @YuvToBgrRow(ptr noalias noundef readonly captures(none) %0, ptr noalias noundef readonly captures(none) %1, ptr noalias noundef readonly captures(none) %2, ptr noalias noundef writeonly captures(address) %3, i32 noundef %4) #2 {
  %6 = and i32 %4, -2
  %7 = mul nsw i32 %6, 3
  %8 = sext i32 %7 to i64
  %9 = getelementptr inbounds i8, ptr %3, i64 %8
  %.not26 = icmp eq i32 %6, 0
  br i1 %.not26, label %._crit_edge, label %.lr.ph

.lr.ph:                                           ; preds = %5, %.lr.ph
  %.030 = phi ptr [ %85, %.lr.ph ], [ %0, %5 ]
  %.02029 = phi ptr [ %86, %.lr.ph ], [ %1, %5 ]
  %.02128 = phi ptr [ %88, %.lr.ph ], [ %3, %5 ]
  %.02227 = phi ptr [ %87, %.lr.ph ], [ %2, %5 ]
  %10 = load i8, ptr %.030, align 1, !tbaa !11
  %11 = zext i8 %10 to i32
  %12 = load i8, ptr %.02029, align 1, !tbaa !11
  %13 = zext i8 %12 to i32
  %14 = load i8, ptr %.02227, align 1, !tbaa !11
  %15 = zext i8 %14 to i32
  %16 = mul nuw nsw i32 %11, 19077
  %17 = lshr i32 %16, 8
  %18 = mul nuw nsw i32 %13, 33050
  %19 = lshr i32 %18, 8
  %20 = add nuw nsw i32 %19, %17
  %21 = add nsw i32 %20, -17685
  %22 = icmp ult i32 %21, 16384
  %23 = lshr i32 %21, 6
  %24 = icmp samesign ult i32 %20, 17685
  %25 = select i1 %24, i32 0, i32 255
  %26 = select i1 %22, i32 %23, i32 %25
  %27 = trunc i32 %26 to i8
  store i8 %27, ptr %.02128, align 1, !tbaa !11
  %28 = mul nuw nsw i32 %13, 6419
  %29 = lshr i32 %28, 8
  %30 = mul nuw nsw i32 %15, 13320
  %31 = lshr i32 %30, 8
  %32 = add nuw nsw i32 %31, %29
  %33 = sub nsw i32 %17, %32
  %34 = add nsw i32 %33, 8708
  %35 = icmp ult i32 %34, 16384
  %36 = lshr i32 %34, 6
  %37 = icmp slt i32 %33, -8708
  %38 = select i1 %37, i32 0, i32 255
  %39 = select i1 %35, i32 %36, i32 %38
  %40 = trunc i32 %39 to i8
  %41 = getelementptr inbounds nuw i8, ptr %.02128, i64 1
  store i8 %40, ptr %41, align 1, !tbaa !11
  %42 = mul nuw nsw i32 %15, 26149
  %43 = lshr i32 %42, 8
  %44 = add nuw nsw i32 %43, %17
  %45 = add nsw i32 %44, -14234
  %46 = icmp ult i32 %45, 16384
  %47 = lshr i32 %45, 6
  %48 = icmp samesign ult i32 %44, 14234
  %49 = select i1 %48, i32 0, i32 255
  %50 = select i1 %46, i32 %47, i32 %49
  %51 = trunc i32 %50 to i8
  %52 = getelementptr inbounds nuw i8, ptr %.02128, i64 2
  store i8 %51, ptr %52, align 1, !tbaa !11
  %53 = getelementptr inbounds nuw i8, ptr %.030, i64 1
  %54 = load i8, ptr %53, align 1, !tbaa !11
  %55 = zext i8 %54 to i32
  %56 = getelementptr inbounds nuw i8, ptr %.02128, i64 3
  %57 = mul nuw nsw i32 %55, 19077
  %58 = lshr i32 %57, 8
  %59 = add nuw nsw i32 %58, %19
  %60 = add nsw i32 %59, -17685
  %61 = icmp ult i32 %60, 16384
  %62 = lshr i32 %60, 6
  %63 = icmp samesign ult i32 %59, 17685
  %64 = select i1 %63, i32 0, i32 255
  %65 = select i1 %61, i32 %62, i32 %64
  %66 = trunc i32 %65 to i8
  store i8 %66, ptr %56, align 1, !tbaa !11
  %67 = sub nsw i32 %58, %32
  %68 = add nsw i32 %67, 8708
  %69 = icmp ult i32 %68, 16384
  %70 = lshr i32 %68, 6
  %71 = icmp slt i32 %67, -8708
  %72 = select i1 %71, i32 0, i32 255
  %73 = select i1 %69, i32 %70, i32 %72
  %74 = trunc i32 %73 to i8
  %75 = getelementptr inbounds nuw i8, ptr %.02128, i64 4
  store i8 %74, ptr %75, align 1, !tbaa !11
  %76 = add nuw nsw i32 %58, %43
  %77 = add nsw i32 %76, -14234
  %78 = icmp ult i32 %77, 16384
  %79 = lshr i32 %77, 6
  %80 = icmp samesign ult i32 %76, 14234
  %81 = select i1 %80, i32 0, i32 255
  %82 = select i1 %78, i32 %79, i32 %81
  %83 = trunc i32 %82 to i8
  %84 = getelementptr inbounds nuw i8, ptr %.02128, i64 5
  store i8 %83, ptr %84, align 1, !tbaa !11
  %85 = getelementptr inbounds nuw i8, ptr %.030, i64 2
  %86 = getelementptr inbounds nuw i8, ptr %.02029, i64 1
  %87 = getelementptr inbounds nuw i8, ptr %.02227, i64 1
  %88 = getelementptr inbounds nuw i8, ptr %.02128, i64 6
  %.not = icmp eq ptr %88, %9
  br i1 %.not, label %._crit_edge, label %.lr.ph, !llvm.loop !18

._crit_edge:                                      ; preds = %.lr.ph, %5
  %.022.lcssa = phi ptr [ %2, %5 ], [ %87, %.lr.ph ]
  %.021.lcssa = phi ptr [ %3, %5 ], [ %9, %.lr.ph ]
  %.020.lcssa = phi ptr [ %1, %5 ], [ %86, %.lr.ph ]
  %.0.lcssa = phi ptr [ %0, %5 ], [ %85, %.lr.ph ]
  %89 = and i32 %4, 1
  %.not23 = icmp eq i32 %89, 0
  br i1 %.not23, label %134, label %90

90:                                               ; preds = %._crit_edge
  %91 = load i8, ptr %.0.lcssa, align 1, !tbaa !11
  %92 = zext i8 %91 to i32
  %93 = load i8, ptr %.020.lcssa, align 1, !tbaa !11
  %94 = zext i8 %93 to i32
  %95 = load i8, ptr %.022.lcssa, align 1, !tbaa !11
  %96 = zext i8 %95 to i32
  %97 = mul nuw nsw i32 %92, 19077
  %98 = lshr i32 %97, 8
  %99 = mul nuw nsw i32 %94, 33050
  %100 = lshr i32 %99, 8
  %101 = add nuw nsw i32 %100, %98
  %102 = add nsw i32 %101, -17685
  %103 = icmp ult i32 %102, 16384
  %104 = lshr i32 %102, 6
  %105 = icmp samesign ult i32 %101, 17685
  %106 = select i1 %105, i32 0, i32 255
  %107 = select i1 %103, i32 %104, i32 %106
  %108 = trunc i32 %107 to i8
  store i8 %108, ptr %.021.lcssa, align 1, !tbaa !11
  %109 = mul nuw nsw i32 %94, 6419
  %110 = lshr i32 %109, 8
  %111 = mul nuw nsw i32 %96, 13320
  %112 = lshr i32 %111, 8
  %113 = add nuw nsw i32 %110, %112
  %114 = sub nsw i32 %98, %113
  %115 = add nsw i32 %114, 8708
  %116 = icmp ult i32 %115, 16384
  %117 = lshr i32 %115, 6
  %118 = icmp slt i32 %114, -8708
  %119 = select i1 %118, i32 0, i32 255
  %120 = select i1 %116, i32 %117, i32 %119
  %121 = trunc i32 %120 to i8
  %122 = getelementptr inbounds nuw i8, ptr %.021.lcssa, i64 1
  store i8 %121, ptr %122, align 1, !tbaa !11
  %123 = mul nuw nsw i32 %96, 26149
  %124 = lshr i32 %123, 8
  %125 = add nuw nsw i32 %124, %98
  %126 = add nsw i32 %125, -14234
  %127 = icmp ult i32 %126, 16384
  %128 = lshr i32 %126, 6
  %129 = icmp samesign ult i32 %125, 14234
  %130 = select i1 %129, i32 0, i32 255
  %131 = select i1 %127, i32 %128, i32 %130
  %132 = trunc i32 %131 to i8
  %133 = getelementptr inbounds nuw i8, ptr %.021.lcssa, i64 2
  store i8 %132, ptr %133, align 1, !tbaa !11
  br label %134

134:                                              ; preds = %90, %._crit_edge
  ret void
}